(dp1
Vpynet-rtr2.twb-tech.com
p2
ccopy_reg
_reconstructor
p3
(c__main__
NetworkDevice
p4
c__builtin__
tuple
p5
(I1928831928
I1928821054
I00
ttRp6
sVpynet-rtr1.twb-tech.com
p7
g3
(g4
g5
(I289045537
I284777515
I00
ttRp8
s.